ccopy_reg
_reconstructor
p0
(c__main__
SortedDict
p1
c__builtin__
dict
p2
(dp3
csip
_unpickle_type
p4
(S'PyQt4.QtCore'
p5
S'QString'
p6
(Vkhader
p7
tp8
tp9
Rp10
g4
(g5
S'QString'
p11
(Vcalicut
p12
tp13
tp14
Rp15
sg4
(g5
S'QString'
p16
(Vabhishek
p17
tp18
tp19
Rp20
g4
(g5
S'QString'
p21
(Vcalicut
p22
tp23
tp24
Rp25
sg4
(g5
S'QString'
p26
(Vhisham
p27
tp28
tp29
Rp30
g4
(g5
S'QString'
p31
(Vcalicut
p32
tp33
tp34
Rp35
stp36
Rp37
.